target datalayout = "e-m:e-p270:32:32-p271:32:32-p272:64:64-i64:64-i128:128-f80:128-n8:16:32:64-S128"
target triple = "x86_64-pc-linux-gnu"

%struct.ForEachState = type { ptr, i32 }
%struct.List = type { i32, i32, i32, ptr, [0 x %union.ListCell] }
%union.ListCell = type { ptr }
%struct.TargetEntry = type { %struct.Expr, ptr, i16, ptr, i32, i32, i16, i8 }
%struct.Expr = type { i32 }

; Function Attrs: nounwind uwtable
define dso_local signext i16 @ExecFindJunkAttributeInTlist(ptr noundef %0, ptr noundef %1) #0 {
  %3 = alloca i16, align 2
  %4 = alloca ptr, align 8
  %5 = alloca ptr, align 8
  %6 = alloca ptr, align 8
  %7 = alloca %struct.ForEachState, align 8
  %8 = alloca i32, align 4
  %9 = alloca ptr, align 8
  store ptr %0, ptr %4, align 8
  store ptr %1, ptr %5, align 8
  call void @llvm.lifetime.start.p0(i64 8, ptr %6) #6
  call void @llvm.lifetime.start.p0(i64 16, ptr %7) #6
  %10 = getelementptr inbounds nuw %struct.ForEachState, ptr %7, i32 0, i32 0
  %11 = load ptr, ptr %4, align 8
  store ptr %11, ptr %10, align 8
  %12 = getelementptr inbounds nuw %struct.ForEachState, ptr %7, i32 0, i32 1
  store i32 0, ptr %12, align 8
  %13 = getelementptr i8, ptr %7, i64 12
  call void @llvm.memset.p0.i64(ptr align 4 %13, i8 0, i64 4, i1 false)
  br label %14

14:                                               ; preds = %67, %2
  %15 = getelementptr inbounds nuw %struct.ForEachState, ptr %7, i32 0, i32 0
  %16 = load ptr, ptr %15, align 8
  %17 = icmp ne ptr %16, null
  br i1 %17, label %18, label %35

18:                                               ; preds = %14
  %19 = getelementptr inbounds nuw %struct.ForEachState, ptr %7, i32 0, i32 1
  %20 = load i32, ptr %19, align 8
  %21 = getelementptr inbounds nuw %struct.ForEachState, ptr %7, i32 0, i32 0
  %22 = load ptr, ptr %21, align 8
  %23 = getelementptr inbounds nuw %struct.List, ptr %22, i32 0, i32 1
  %24 = load i32, ptr %23, align 4
  %25 = icmp slt i32 %20, %24
  br i1 %25, label %26, label %35

26:                                               ; preds = %18
  %27 = getelementptr inbounds nuw %struct.ForEachState, ptr %7, i32 0, i32 0
  %28 = load ptr, ptr %27, align 8
  %29 = getelementptr inbounds nuw %struct.List, ptr %28, i32 0, i32 3
  %30 = load ptr, ptr %29, align 8
  %31 = getelementptr inbounds nuw %struct.ForEachState, ptr %7, i32 0, i32 1
  %32 = load i32, ptr %31, align 8
  %33 = sext i32 %32 to i64
  %34 = getelementptr inbounds %union.ListCell, ptr %30, i64 %33
  store ptr %34, ptr %6, align 8
  br label %36

35:                                               ; preds = %18, %14
  store ptr null, ptr %6, align 8
  br label %36

36:                                               ; preds = %35, %26
  %37 = phi i32 [ 1, %26 ], [ 0, %35 ]
  %38 = icmp ne i32 %37, 0
  br i1 %38, label %40, label %39

39:                                               ; preds = %36
  store i32 2, ptr %8, align 4
  br label %71

40:                                               ; preds = %36
  call void @llvm.lifetime.start.p0(i64 8, ptr %9) #6
  %41 = load ptr, ptr %6, align 8
  %42 = load ptr, ptr %41, align 8
  store ptr %42, ptr %9, align 8
  %43 = load ptr, ptr %9, align 8
  %44 = getelementptr inbounds nuw %struct.TargetEntry, ptr %43, i32 0, i32 7
  %45 = load i8, ptr %44, align 2, !range !4, !noundef !5
  %46 = trunc i8 %45 to i1
  br i1 %46, label %47, label %63

47:                                               ; preds = %40
  %48 = load ptr, ptr %9, align 8
  %49 = getelementptr inbounds nuw %struct.TargetEntry, ptr %48, i32 0, i32 3
  %50 = load ptr, ptr %49, align 8
  %51 = icmp ne ptr %50, null
  br i1 %51, label %52, label %63

52:                                               ; preds = %47
  %53 = load ptr, ptr %9, align 8
  %54 = getelementptr inbounds nuw %struct.TargetEntry, ptr %53, i32 0, i32 3
  %55 = load ptr, ptr %54, align 8
  %56 = load ptr, ptr %5, align 8
  %57 = call i32 @strcmp(ptr noundef %55, ptr noundef %56) #7
  %58 = icmp eq i32 %57, 0
  br i1 %58, label %59, label %63

59:                                               ; preds = %52
  %60 = load ptr, ptr %9, align 8
  %61 = getelementptr inbounds nuw %struct.TargetEntry, ptr %60, i32 0, i32 2
  %62 = load i16, ptr %61, align 8
  store i16 %62, ptr %3, align 2
  store i32 1, ptr %8, align 4
  br label %64

63:                                               ; preds = %52, %47, %40
  store i32 0, ptr %8, align 4
  br label %64

64:                                               ; preds = %63, %59
  call void @llvm.lifetime.end.p0(i64 8, ptr %9) #6
  %65 = load i32, ptr %8, align 4
  switch i32 %65, label %71 [
    i32 0, label %66
  ]

66:                                               ; preds = %64
  br label %67

67:                                               ; preds = %66
  %68 = getelementptr inbounds nuw %struct.ForEachState, ptr %7, i32 0, i32 1
  %69 = load i32, ptr %68, align 8
  %70 = add i32 %69, 1
  store i32 %70, ptr %68, align 8
  br label %14, !llvm.loop !9

71:                                               ; preds = %64, %39
  call void @llvm.lifetime.end.p0(i64 16, ptr %7) #6
  %72 = load i32, ptr %8, align 4
  switch i32 %72, label %74 [
    i32 2, label %73
  ]

73:                                               ; preds = %71
  store i16 0, ptr %3, align 2
  store i32 1, ptr %8, align 4
  br label %74

74:                                               ; preds = %73, %71
  call void @llvm.lifetime.end.p0(i64 8, ptr %6) #6
  %75 = load i16, ptr %3, align 2
  ret i16 %75
}