; Function Attrs: nofree nounwind memory(read, inaccessiblemem: none) uwtable
define dso_local signext i16 @ExecFindJunkAttributeInTlist(ptr noundef readonly captures(address_is_null) %0, ptr noundef readonly captures(none) %1) local_unnamed_addr #2 {
  %.not = icmp eq ptr %0, null
  br i1 %.not, label %.loopexit, label %.lr.ph

.lr.ph:                                           ; preds = %2
  %3 = getelementptr inbounds nuw i8, ptr %0, i64 4
  %4 = load i32, ptr %3, align 4
  %5 = icmp sgt i32 %4, 0
  br i1 %5, label %.lr.ph35, label %.loopexit

.lr.ph35:                                         ; preds = %.lr.ph
  %6 = getelementptr inbounds nuw i8, ptr %0, i64 16
  %7 = load ptr, ptr %6, align 8
  %wide.trip.count = zext nneg i32 %4 to i64
  br label %8

8:                                                ; preds = %.lr.ph35, %20
  %indvars.iv = phi i64 [ 0, %.lr.ph35 ], [ %indvars.iv.next, %20 ]
  %9 = getelementptr inbounds nuw %union.ListCell, ptr %7, i64 %indvars.iv
  %10 = load ptr, ptr %9, align 8
  %11 = getelementptr inbounds nuw i8, ptr %10, i64 42
  %12 = load i8, ptr %11, align 2, !range !4, !noundef !5
  %13 = trunc nuw i8 %12 to i1
  br i1 %13, label %14, label %20

14:                                               ; preds = %8
  %15 = getelementptr inbounds nuw i8, ptr %10, i64 24
  %16 = load ptr, ptr %15, align 8
  %.not20 = icmp eq ptr %16, null
  br i1 %.not20, label %20, label %17

17:                                               ; preds = %14
  %18 = tail call i32 @strcmp(ptr noundef nonnull dereferenceable(1) %16, ptr noundef nonnull dereferenceable(1) %1) #5
  %19 = icmp eq i32 %18, 0
  br i1 %19, label %.split, label %20

20:                                               ; preds = %17, %14, %8
  %indvars.iv.next = add nuw nsw i64 %indvars.iv, 1
  %exitcond.not = icmp eq i64 %indvars.iv.next, %wide.trip.count
  br i1 %exitcond.not, label %.loopexit, label %8

.split:                                           ; preds = %17
  %21 = getelementptr inbounds nuw i8, ptr %10, i64 16
  %22 = load i16, ptr %21, align 8
  br label %.loopexit

.loopexit:                                        ; preds = %20, %2, %.lr.ph, %.split
  %23 = phi i16 [ %22, %.split ], [ 0, %.lr.ph ], [ 0, %2 ], [ 0, %20 ]
  ret i16 %23
}